(dp0
S't'
p1
S'CORN_AC=D7630079FFDCD4B4C7D93BD563BB92D920992470500D2A9F79D3A40D6EBC1A0D9E63895138D1ACBC9401CDBCF0C1B1E19175FFF65329EB1D072881D7F00CC274E81A028454028D1483A4024A43E6ABE06644C1F5DC0D54C5590D05845072A976D975748F415E52D7DB44767F20B999C8D68EB8018661748DA81410C742A83B62'
p2
s.