(dp0
VK12
p1
Vhttps://live-su.cdn.pooq.co.kr/hls/K12/1/2000/live.m3u8?Policy=eyJTdGF0ZW1lbnQiOlt7IlJlc291cmNlIjoiaHR0cCo6Ly8qLmNkbi5wb29xLmNvLmtyL2hscy9LMTIvMS8yMDAwLyoiLCJDb25kaXRpb24iOnsiRGF0ZUxlc3NUaGFuIjp7IkFXUzpFcG9jaFRpbWUiOjE1NTI3MzcyMTB9LCJJcEFkZHJlc3MiOnsiQVdTOlNvdXJjZUlwIjoiMS4yMjEuNjEuMC8yNCJ9fX1dLCJ0aWQiOiIxMDA5NDUxNTA4MTAifQ__&Signature=de2UI~j2QUEP2dm0ej2jwrgVFJhUt~LnGAlh7sLa948zajEOdGoIjEgim61HJsWoyxo~BnZPYQHvTUwi1P0dZcBr1utrNLlurPjBKNz43f1qji67sF9~thNlJZLY43pdP1k26TMaId-X3t4ArpbIqqNP37GhC310C4CByo0bbOKJWIJtnwq7iaG-4SijBpv-pWmZix0WND0HhTcWPQU1seoQ8V850~PQcGkehcGe47BMfxMpiiPTUpUwGFamWndJ2hIShLN9MMjcoi8l9ONWzCBuAV10Imeet-ZUC~QyXx2Jyrbf-qlFK8h14xeiLFnHdJBp52Mqx4LEXH7JaGUQ9g__&Key-Pair-Id=APKAJ6KCI2B6BKBQMD4A
p2
sVY01
p3
Vhttps://live-su.cdn.pooq.co.kr/hls/Y01/1/2000/live.m3u8?Policy=eyJTdGF0ZW1lbnQiOlt7IlJlc291cmNlIjoiaHR0cCo6Ly8qLmNkbi5wb29xLmNvLmtyL2hscy9ZMDEvMS8yMDAwLyoiLCJDb25kaXRpb24iOnsiRGF0ZUxlc3NUaGFuIjp7IkFXUzpFcG9jaFRpbWUiOjE1Mzg5MzUwNjF9LCJJcEFkZHJlc3MiOnsiQVdTOlNvdXJjZUlwIjoiMTI1LjE4My4yMDQuMC8yNCJ9fX1dLCJ0aWQiOiI3MzUwNzQyODY2MSJ9&Signature=Olwym4VbV6npRQDn-zSD32Sh~4g62eb~hpywrjdP5DVy-82p5OXVwhfV7V4QRklvN1hPdcQV-iAH6HR~QKcddF5Wsfg2PExy84pA-RpIOg0JVACbWfvgcIojAYOoXlsUZKIYgys6Q5kTM9oh5Kf2K56cLt7vAnzIU-yr9KRAiRL-V9Hl1ujX4k3d0G5VNBHgzSL81mr0l3QLfr1Qwk6rZ59mwNpPj79T7x~HypG2lyd~QtpKKSk1XWFFkB6NeI77cA7Hi3n~fKROOoT93eGtrp6jb47-ZJxS2JX5R6ZcR-QHRA7j~zYHQVNcrHyCABmBQZFY1lsEvSZ-Kca9Zdtk2w__&Key-Pair-Id=APKAJ6KCI2B6BKBQMD4A
p4
sVK17
p5
Vhttps://live-su.cdn.pooq.co.kr/hls/K17/1/500/live.m3u8?Policy=eyJTdGF0ZW1lbnQiOlt7IlJlc291cmNlIjoiaHR0cCo6Ly8qLmNkbi5wb29xLmNvLmtyL2hscy9LMTcvMS81MDAvKiIsIkNvbmRpdGlvbiI6eyJEYXRlTGVzc1RoYW4iOnsiQVdTOkVwb2NoVGltZSI6MTUzOTY1OTUwNH0sIklwQWRkcmVzcyI6eyJBV1M6U291cmNlSXAiOiIxMjUuMTgzLjIwNC4wLzI0In19fV0sInRpZCI6IjczNTA3NDIzMTA0In0_&Signature=KjbhyMc1ktcwDV80UT2KHnYaraCjnUzCQlsCQ4pt1Bthv5na3LX6khNYihkbnATtWNhyva7zboxRaDhDRTYEPMSPdx3teuYXu7V9u~HDejg-ZI02bp4y1lutw4YNsk~tqkayt7kQYS~z3yZSmCTLDa9SvOfimQx2LpJ0SN1liCjHRH-5YR4Thnry9HNX3TRr1Cuo56exi9Nlh8h4nHkBJ-5INs2slY0k7~qZpL~hITaxW-ceepHZNNnTge6YWT97etM58q4r14NK1HbvJgRZO223fYxtlnCh2aFg2QJp-CP~stp75mktlpuyAeg2aR2iHysc3FipE0xCoa1Xe0yRdA__&Key-Pair-Id=APKAJ6KCI2B6BKBQMD4A
p6
sVK15
p7
Vhttps://live-su.cdn.pooq.co.kr/hls/K15/1/2000/live.m3u8?Policy=eyJTdGF0ZW1lbnQiOlt7IlJlc291cmNlIjoiaHR0cCo6Ly8qLmNkbi5wb29xLmNvLmtyL2hscy9LMTUvMS8yMDAwLyoiLCJDb25kaXRpb24iOnsiRGF0ZUxlc3NUaGFuIjp7IkFXUzpFcG9jaFRpbWUiOjE1Mzg5Mzg4NTd9LCJJcEFkZHJlc3MiOnsiQVdTOlNvdXJjZUlwIjoiMTI1LjE4My4yMDQuMC8yNCJ9fX1dLCJ0aWQiOiI3MzUwNzQyMjQ1NyJ9&Signature=IfY0-lMfgsTB0yAYdwax-F70-DLgPzyV3DVs2eU7GluEw~odbf-F7Mxg652Kf9u7FcPoO-MV5RM8KKdMUGc1LKFS003PVO93oN22XH-FbnIZY3~NnGBbztC9XSAOLuh51J30P0gjo4F2oxseT0eCoAawkl4A4sS0pNp8JmjQMGY~bj-OuIMJQqReggvgae0KuSRIeSOTQGphUECtXGmNLVBhZofdcEWVCwbrPKMTGomux1qsW7DtFIeUytXffz4EwLuSVbRr8reueM-NxwGsbwTbkI9z4UZLygEZEeLygEDY97WboDUtU~VELxP7aM512Gnawk-Y04R-R-pPdPJuAw__&Key-Pair-Id=APKAJ6KCI2B6BKBQMD4A
p8
sVH02
p9
Vhttps://live-su.cdn.pooq.co.kr/hls/H02/1/5000/live.m3u8?Policy=eyJTdGF0ZW1lbnQiOlt7IlJlc291cmNlIjoiaHR0cCo6Ly8qLmNkbi5wb29xLmNvLmtyL2hscy9IMDIvMS81MDAwLyoiLCJDb25kaXRpb24iOnsiRGF0ZUxlc3NUaGFuIjp7IkFXUzpFcG9jaFRpbWUiOjE1NTg1MTEyMjB9LCJJcEFkZHJlc3MiOnsiQVdTOlNvdXJjZUlwIjoiMS4yMjEuNjEuMC8yNCJ9fX1dLCJ0aWQiOiIwNjIwIn0_&Signature=HgOTaeYjxTwsFz9-n~FEJ9KEgCN7As3ZtmwnmdEYLQKUYIKGY7WLGQOGpmkILU04HH3x~05e6marZb6LWq5h5wKIzh-BuuWDV2RjxW1Crh8y-1KsZWsYB9zc~rVMdq5cQSd-clUMZwyZzPHMytDqciRE74iVaO5GKTycf4Zf7p2Es3mieL3PwDlDeCr9UP5fbMoH05DJK34YzmGTdGX4AwgIOvdQ-bfGewe6mek1xUadE4NMKor9O9TuntEuELXWyy96eMHPovCz8Mp~6NVc-XiY51POpmokxY~4UOc-Lur85U2dfD0cyCl56dng16GK8Zeg9ZREwIP8hpenSAMVcQ__&Key-Pair-Id=APKAJ6KCI2B6BKBQMD4A
p10
sVH01
p11
Vhttps://live-su.cdn.pooq.co.kr/hls/H01/1/5000/live.m3u8?Policy=eyJTdGF0ZW1lbnQiOlt7IlJlc291cmNlIjoiaHR0cCo6Ly8qLmNkbi5wb29xLmNvLmtyL2hscy9IMDEvMS81MDAwLyoiLCJDb25kaXRpb24iOnsiRGF0ZUxlc3NUaGFuIjp7IkFXUzpFcG9jaFRpbWUiOjE1NTUzMDM1NDR9LCJJcEFkZHJlc3MiOnsiQVdTOlNvdXJjZUlwIjoiMS4yMjEuNjEuMC8yNCJ9fX1dLCJ0aWQiOiIyOTQ0In0_&Signature=WiftxCjzy7BWEcZ2wkF2-afvTIrRADVh6R2W-RtVBUBy5cQTxuB5ZCgdktJNsDAIzlmxYjizBTDdPt43wYB548YhMsOtTbNeG-3xI3b~QamUMFERKbB6l-RHs1TeG7Fq8hi0y3dlU0RrCy4bIqaTiTcD8MPYO-JqGgQxWJIzj2Bytktd-zAfGauEVnZTx0UvImpOysRA7TVamNAsw5zJaPOIQEGmWyMtI3cBCwEZJX~W~MsDCUPhX12VAIRScH5Hj1-8ijDcJTG3FIolutKcCGBk5wY715HJhzChczet0pbssFV-OXrQqBVWsHfkM341hG2j-3U8n1kCp~-04xNzjg__&Key-Pair-Id=APKAJ6KCI2B6BKBQMD4A
p12
sVH07
p13
Vhttps://live-su.cdn.pooq.co.kr/hls/H07/1/5000/live.m3u8?Policy=eyJTdGF0ZW1lbnQiOlt7IlJlc291cmNlIjoiaHR0cCo6Ly8qLmNkbi5wb29xLmNvLmtyL2hscy9IMDcvMS81MDAwLyoiLCJDb25kaXRpb24iOnsiRGF0ZUxlc3NUaGFuIjp7IkFXUzpFcG9jaFRpbWUiOjE1NTI3MzcyNzR9LCJJcEFkZHJlc3MiOnsiQVdTOlNvdXJjZUlwIjoiMS4yMjEuNjEuMC8yNCJ9fX1dLCJ0aWQiOiIxMDA5NDUxNTA4NzQifQ__&Signature=hEpoqG2CDx2QcaJefV8POE9vSBi8dLxUOzakAnHlASdSzdII2b1OQh-MvA9WbYSLxFulYexwHYFaGPg9xxwS6Agq41thUwVkTvpVSTkIw68EYTpkaXjknutx3m6i-P5PWTM5EXp6dDhxPU4I42EU1Aqa3LGOXl63ENLkcJWA~B7RUYzIV-7O7mEltKpocKUv1rJrpz5MB8B4qpBLf0GjlLni8-bkRmcQYE-kZ9lx1m0LnLboR6YMOFLuaaabOObhABk-0G6UpEKs6T8XczAcvTIO0-3QTCxpdqLe1XnHplwGkELJCXX4j4FhHfarvfE-fTi92pZLhK95tMGQl1kSSQ__&Key-Pair-Id=APKAJ6KCI2B6BKBQMD4A
p14
sVC2703
p15
Vhttps://live-su.cdn.pooq.co.kr/hls/C2703/1/100/radio.m3u8?Policy=eyJTdGF0ZW1lbnQiOlt7IlJlc291cmNlIjoiaHR0cCo6Ly8qLmNkbi5wb29xLmNvLmtyL2hscy9DMjcwMy8xLzEwMC8qIiwiQ29uZGl0aW9uIjp7IkRhdGVMZXNzVGhhbiI6eyJBV1M6RXBvY2hUaW1lIjoxNTM5NjU5MjgwfSwiSXBBZGRyZXNzIjp7IkFXUzpTb3VyY2VJcCI6IjAuMC4wLjAvMCJ9fX1dLCJ0aWQiOiI3MzUwNzQyMjg4MCJ9&Signature=BL2Kr8CFCBNYfbSbV36RX6Bw4h-9dPcotJymWMnjoVlF~Ymu~Mmcd6fDzJZmICzZHSliTTOSCT3yHSlk97uddvwGSlW9QQyNbBzcM73A51aO0Xp8i8k9iPseqUJ7qk5yrUHLrvgX~7PCaLOSvJhn0cRDkO83JDNpHVyqBK5O0Xl0iViCm1r~qBm18GEwfZmRMFvvZMf-N26ReWHRmWqXY6sFvPOvSpywMVq0Omkq4KxVqg7NUbm16u3r8-j0A0WXj4zPnWDED-vD9cM-6TTFAzB0pS~STlJMTqKXEWQ4RgEKuQrYr1HRgoitoAvcPHuohVY8K0tCmmrKWjgoqW1pMg__&Key-Pair-Id=APKAJ6KCI2B6BKBQMD4A
p16
sVC4102
p17
Vhttps://live-su.cdn.pooq.co.kr/hls/C4102/1/2000/live.m3u8?Policy=eyJTdGF0ZW1lbnQiOlt7IlJlc291cmNlIjoiaHR0cCo6Ly8qLmNkbi5wb29xLmNvLmtyL2hscy9DNDEwMi8xLzIwMDAvKiIsIkNvbmRpdGlvbiI6eyJEYXRlTGVzc1RoYW4iOnsiQVdTOkVwb2NoVGltZSI6MTUzODkzMjczNn0sIklwQWRkcmVzcyI6eyJBV1M6U291cmNlSXAiOiIxMjUuMTgzLjIwNC4wLzI0In19fV0sInRpZCI6IjczNTA3NDI2MzM2In0_&Signature=a3emMwMOOjOZ38hrzyXrH3dFOKJBZWga0LS~VLTFhtPor3tKfVojnJZ~lNcATZbBsURmwqZmwf7-XvJra7JYoISS8Mg2loKqs0YAHOyT23JcOw0HKYRFwh~9AYa4wuJFrehTAvjYWSWxFAR5njJ1t0c573-3pgMpZsDIBInLp872cWD93QxltcPJfIDvuPxUYCD-u0tAlcDZeXfPdUJIVw8mq-XLl9CKJwzzm4~xGVj~~fsnmBuTSvPU9~ul10boutkKHGKFwE7tTd3bb3Mn2~VqwD6UjxQUHvpACPn43LGnq65~f0M9YckcRz-rnIR7EdevcD1Y5WWgQRnmJsECiQ__&Key-Pair-Id=APKAJ6KCI2B6BKBQMD4A
p18
sVC4101
p19
Vhttps://live-su.cdn.pooq.co.kr/hls/C4101/1/2000/live.m3u8?Policy=eyJTdGF0ZW1lbnQiOlt7IlJlc291cmNlIjoiaHR0cCo6Ly8qLmNkbi5wb29xLmNvLmtyL2hscy9DNDEwMS8xLzIwMDAvKiIsIkNvbmRpdGlvbiI6eyJEYXRlTGVzc1RoYW4iOnsiQVdTOkVwb2NoVGltZSI6MTUzODkzODc4M30sIklwQWRkcmVzcyI6eyJBV1M6U291cmNlSXAiOiIxMjUuMTgzLjIwNC4wLzI0In19fV0sInRpZCI6IjczNTA3NDIyMzgzIn0_&Signature=AUzjOFrwFAxR-cqbUeA85v4b9uz1aAdq-CtZyJLIRwxt5Ilo236gr6p6fpHGVKsaJaS5PVTKozDE07hzLgdYkkZICg35lYYArpy~joNdjdsfqntmLJZiCVxnh52xnJAvci2jHppmkxSsDdxpxbqb8vhvhcO4xwY0tebanCFA3YOlJ6AHMFdvIo8BG3S8zZNVUsZ30f0VoWO3CFUrvb9QynvEqlvostbPVNeJcnEs2RZ0IlMaDGFZ40QU1K89ViMk4hXu5qJNS1ADtAnCZKUFucqD1XYHSOMcHOODYKgkcP2XIRsl4ZcYzqEKTPk81JdM3jd5tvl6t1-B3DN4nPxLtA__&Key-Pair-Id=APKAJ6KCI2B6BKBQMD4A
p20
sVC2706
p21
Vhttps://live-su.cdn.pooq.co.kr/hls/C2706/1/100/radio.m3u8?Policy=eyJTdGF0ZW1lbnQiOlt7IlJlc291cmNlIjoiaHR0cCo6Ly8qLmNkbi5wb29xLmNvLmtyL2hscy9DMjcwNi8xLzEwMC8qIiwiQ29uZGl0aW9uIjp7IkRhdGVMZXNzVGhhbiI6eyJBV1M6RXBvY2hUaW1lIjoxNTU4NjYxMDk2fSwiSXBBZGRyZXNzIjp7IkFXUzpTb3VyY2VJcCI6IjAuMC4wLjAvMCJ9fX1dLCJ0aWQiOiIxMDA5NDUxNTQ2OTYifQ__&Signature=Pi4jk2kdk7pJ9tHdvy45NBu2l77zvhdI7Ig9TtAjFcJN0PeTmL4xIeaJpm0tuApk3deUozZOik3p08-AXzxzmuzQemjkAk-q-0giVjC7DF3tT17oDQpQZfp-rO6AJ2KDnp5AF0kCMezcL6jFn8Wu~5j0O7VsczELWcbSZkqTh0qbmDiobmuV5h1Cbe-nyNx5N2AGwG443chTZhroBevINliVUYpVby16hRTE~7U3vDwTdC0r9fW1TCwoe3cCu9OO1vSkeSoZQMF~rSndT2mf5VjZ2yCD63HUFwunx0Bnz9v0Y3EEQ~MmSkIR8W4sM883pZ0F9RHgC9g2TxJo4DA-aw__&Key-Pair-Id=APKAJ6KCI2B6BKBQMD4A
p22
sVC2705
p23
Vhttps://live-su.cdn.pooq.co.kr/hls/C2705/1/100/radio.m3u8?Policy=eyJTdGF0ZW1lbnQiOlt7IlJlc291cmNlIjoiaHR0cCo6Ly8qLmNkbi5wb29xLmNvLmtyL2hscy9DMjcwNS8xLzEwMC8qIiwiQ29uZGl0aW9uIjp7IkRhdGVMZXNzVGhhbiI6eyJBV1M6RXBvY2hUaW1lIjoxNTM5NjU5MTg2fSwiSXBBZGRyZXNzIjp7IkFXUzpTb3VyY2VJcCI6IjAuMC4wLjAvMCJ9fX1dLCJ0aWQiOiI3MzUwNzQyMjc4NiJ9&Signature=Q6Q4UNTJpOOy6~ASb1WiOUroNwSKxj-91U-iDOEIFylYiCJTgmKMZyN4d9QfKCDCrrNyLD9gvSMz29ODMfMxEJU5Okl2GdBXvlc7GFv~U6OLDlKO4zqP2~R8i2iVjaA3ku~SMV-HLEqsZMZDlLkGkmvUxwCGdUWLigL3XtDeDUVSSRxqDnS4pghnM2hln-tJEfz~sNMteBcB-ZcxqfGpd7Ds6y7mOBdweufsRocxksflHmCM7E5O3L7R256QwEFQvQFNGav2iur~EeHPGrL~rhKXiE3qkexaC~mNfs2sNODloaLhU-~HabntloZ2XIn5ey-AOjNRABFgzIhSHNrG-w__&Key-Pair-Id=APKAJ6KCI2B6BKBQMD4A
p24
sVC2601
p25
Vhttps://live-su.cdn.pooq.co.kr/hls/C2601/1/5000/live.m3u8?Policy=eyJTdGF0ZW1lbnQiOlt7IlJlc291cmNlIjoiaHR0cCo6Ly8qLmNkbi5wb29xLmNvLmtyL2hscy9DMjYwMS8xLzUwMDAvKiIsIkNvbmRpdGlvbiI6eyJEYXRlTGVzc1RoYW4iOnsiQVdTOkVwb2NoVGltZSI6MTU1Mjc0NTM2Mn0sIklwQWRkcmVzcyI6eyJBV1M6U291cmNlSXAiOiIxLjIyMS42MS4wLzI0In19fV0sInRpZCI6IjEwMDk0NTE1ODk2MiJ9&Signature=T3EMsZMIOowY4fH6tOru-pSozgij8q7RX3gNxiZieeq8pfcgVbgQRx4YRGpJn4lT~Q8lAwp7uGU8IilpLnQ~EqRdUq7p~YZiZdJbGZ4~LZI08sQCrKD-sttyQXcxh6MsxFI6sE5KimvoBazHwT~A4Qd2KPPXaCC3dAevFjU32Uo-6-MitnIR67qXV3BygC4KIXdCpbNrxxFSl1RyD~oaK~9K5P3JnwZaMuaBrRKsSlQLUX4RL7yczkFToRw8jhyqeiIGKLSK8rA0cFl7Ro1zQaYPKLHQt9fd9bO6MUApOE8ew5jysCGXkl3YiSfKFIQXNGAg4QyOPaZWOtSQfvmphA__&Key-Pair-Id=APKAJ6KCI2B6BKBQMD4A
p26
sVPM1
p27
Vhttps://live-su.cdn.pooq.co.kr/hls/PM1/1/2000/live.m3u8?Policy=eyJTdGF0ZW1lbnQiOlt7IlJlc291cmNlIjoiaHR0cCo6Ly8qLmNkbi5wb29xLmNvLmtyL2hscy9QTTEvMS8yMDAwLyoiLCJDb25kaXRpb24iOnsiRGF0ZUxlc3NUaGFuIjp7IkFXUzpFcG9jaFRpbWUiOjE1Mzg5Mzg5OTd9LCJJcEFkZHJlc3MiOnsiQVdTOlNvdXJjZUlwIjoiMTI1LjE4My4yMDQuMC8yNCJ9fX1dLCJ0aWQiOiI3MzUwNzQyMjU5NyJ9&Signature=ZctM3cCBvdJGU~IXkfvqQYbb1TxTfRwjb9BAY32xBgCbTPxp3EAFGAXh8p8CLREQ4TsUbyjmFebdRFvIxA7d4LANYZ0~K2dXyC2S4FD~99lFUseNcH~v3WutxdU7MUGcq6fiQa0-7OrgqsEMOP8dPeBCKI15WcrJ50iX9yUAsHYUcsfRemmTzFLZ3PIWeba901SiMc6x5N3J0uRpnVTvu7tRKu7nVR0h3kWUxIpDbTZNcKmrf8zZGs~v4Lmoeus4AqCHcag0Rnb-yxr7D7jh8h2wQS7-1ye-z4Z2NLwzEvSfvVAZeFyHsWOrbA~MbpxCy7wylM7buVRQZsWBEPtwkg__&Key-Pair-Id=APKAJ6KCI2B6BKBQMD4A
p28
sVC5401
p29
Vhttps://live-su.cdn.pooq.co.kr/hls/C5401/1/2000/live.m3u8?Policy=eyJTdGF0ZW1lbnQiOlt7IlJlc291cmNlIjoiaHR0cCo6Ly8qLmNkbi5wb29xLmNvLmtyL2hscy9DNTQwMS8xLzIwMDAvKiIsIkNvbmRpdGlvbiI6eyJEYXRlTGVzc1RoYW4iOnsiQVdTOkVwb2NoVGltZSI6MTUzOTE5MTE3NH0sIklwQWRkcmVzcyI6eyJBV1M6U291cmNlSXAiOiIxMjUuMTgzLjIwNC4wLzI0In19fV0sInRpZCI6IjczNTA3NDI0Nzc0In0_&Signature=cZxLbXAH4EhGbYJXPlrH7tfRRd5Vp8eJTNyr7MhZB6OCWyyF9qLxvrrKi3nxmOMbdVzY1ByTXxptfnA3xQvKnu1wwHB9pE9SXZDZxY2nYlfIHHeAkCulhp9ewzygGtVz1NL5Y2zN0QEtUSoc7qaLfAWG2~ybx0B-86E0Cvi7opdnBtIh4Npp5aNGUetYsOP1HXYJX8aa6c07~x4xYXP~hGQq7Gf1oJhKLkEaAK8I3QSYxKszII5hCEVM3CUAjNcp0wC7R6rW4SXUULchZCXQu0FuDYVrwc2kTRLwZAG7PUX6B3anI1fUqG6G3TP2w8EoPA8flflivSZwJKdJNnqGIg__&Key-Pair-Id=APKAJ6KCI2B6BKBQMD4A
p30
sVD01
p31
Vhttps://live-su.cdn.pooq.co.kr/hls/D01/1/2000/live.m3u8?Policy=eyJTdGF0ZW1lbnQiOlt7IlJlc291cmNlIjoiaHR0cCo6Ly8qLmNkbi5wb29xLmNvLmtyL2hscy9EMDEvMS8yMDAwLyoiLCJDb25kaXRpb24iOnsiRGF0ZUxlc3NUaGFuIjp7IkFXUzpFcG9jaFRpbWUiOjE1NTI2OTk5NTh9LCJJcEFkZHJlc3MiOnsiQVdTOlNvdXJjZUlwIjoiMS4yMjEuNjEuMC8yNCJ9fX1dLCJ0aWQiOiIxMDA5NDUxNTM1NTgifQ__&Signature=WaolIcDIh4AN3zz7i1gFZgOXsfVsZHOmXHKDq4CjRLtJ-iPui~WFifAw0Eb65hfh1WheOFykB~FgobCrXZhN726Ym8~q9PMkS6bai5q2~1TsNVqA4qvz9VM14S~pFWDhMqr5WfgIPsfQtSlvG~81uAYm4prdoAs0JKXRTBlbAvNOmPDcAmYE1BgwSgptrh3WgfJu0d0LJmlX6yk0C7mOKvvi6~CRIJVTl2nacdaaWq-jNI7ddu2~73CB443tyu2thEe3HhRVXxLAlc6OR9UELRiJcTi9VMgh3f8JK7NZbq3CYPKIlqlGvhzZPrRRJQ92wleA9wpHfstR1PeDP0fHbQ__&Key-Pair-Id=APKAJ6KCI2B6BKBQMD4A
p32
sVM10
p33
Vhttps://live-su.cdn.pooq.co.kr/hls/M10/1/500/live.m3u8?Policy=eyJTdGF0ZW1lbnQiOlt7IlJlc291cmNlIjoiaHR0cCo6Ly8qLmNkbi5wb29xLmNvLmtyL2hscy9NMTAvMS81MDAvKiIsIkNvbmRpdGlvbiI6eyJEYXRlTGVzc1RoYW4iOnsiQVdTOkVwb2NoVGltZSI6MTUzOTY1OTQxMn0sIklwQWRkcmVzcyI6eyJBV1M6U291cmNlSXAiOiIxMjUuMTgzLjIwNC4wLzI0In19fV0sInRpZCI6IjczNTA3NDIzMDEyIn0_&Signature=Tv4a0I682BkI7e5XxOeoLa3X7LJNt-jb5ZIrEZ33BFJVXwwJ17P9X3NOXD7ABm65Lvre8Yq4pDu3H~HVT6l-nlqmE~IME9tHYe5tkBv4x5dtegJ9Uj01kEF61J86PvOLH6IF~itFzzT-aJjC30uvaSbK7NT-v6q8UrTjjNe-YyUi-RL0WMKemp4FTKpMDem7rAKdAbcYpNb4-26eI53bG5QTe6OzU7LIRjBSUFv~s4kNfqkuXlDESBUqw2TWf1wUJhYmFbXFQc--08hDR9sgajg55fhzBGZP2Fw99nQqbNjqSQcelCCzxkOAkI2xAVzanz65mUnMGWavVPasyODsxw__&Key-Pair-Id=APKAJ6KCI2B6BKBQMD4A
p34
sVS13
p35
Vhttps://live-su.cdn.pooq.co.kr/hls/S13/1/5000/live.m3u8?Policy=eyJTdGF0ZW1lbnQiOlt7IlJlc291cmNlIjoiaHR0cCo6Ly8qLmNkbi5wb29xLmNvLmtyL2hscy9TMTMvMS81MDAwLyoiLCJDb25kaXRpb24iOnsiRGF0ZUxlc3NUaGFuIjp7IkFXUzpFcG9jaFRpbWUiOjE1NTUzMDM0NTl9LCJJcEFkZHJlc3MiOnsiQVdTOlNvdXJjZUlwIjoiMS4yMjEuNjEuMC8yNCJ9fX1dLCJ0aWQiOiIyODU5In0_&Signature=OonmEf6v1jG-9hadRuvnRCja4jeFkglgLFfLBuxMD9nHupvuDnX8qNUquXnNQRULFKxqT0WTa5JX4Ks7lvbN4k~jU7CUbNJEzwTFsrc3ij0jIIo~lOk5-Kk6Jd-rHtTidvt-4i01s8HXL57ByUdjDdCjLt3DsQbZIdrOI4iGdedtg6wBD1Ral1FF64tWlMHxfovbGLZzIz4455~6cbqv4ZjFoxu1J5hfPLFWigm7yTN1SKLreIz2qiMXY9q11TmbVvJ5s7rbon6EQAZpN04KMiPnJ2ilJjGINnJn--rQF8lnawvC6LbpIlw85MKUDjRo0M30VmTA8ZQ6bGOlHZZmyg__&Key-Pair-Id=APKAJ6KCI2B6BKBQMD4A
p36
sVS10
p37
Vhttps://live-su.cdn.pooq.co.kr/hls/S10/1/5000/live.m3u8?Policy=eyJTdGF0ZW1lbnQiOlt7IlJlc291cmNlIjoiaHR0cCo6Ly8qLmNkbi5wb29xLmNvLmtyL2hscy9TMTAvMS81MDAwLyoiLCJDb25kaXRpb24iOnsiRGF0ZUxlc3NUaGFuIjp7IkFXUzpFcG9jaFRpbWUiOjE1NTI2OTk5MTF9LCJJcEFkZHJlc3MiOnsiQVdTOlNvdXJjZUlwIjoiMS4yMjEuNjEuMC8yNCJ9fX1dLCJ0aWQiOiIxMDA5NDUxNTM1MTEifQ__&Signature=jQnPYju3ncA~sC~fLeK4eWOdt-QFFzqX-pqttCcAvbhUfCod4bjSVm2UskSvwuPNeRNV4x0QaaRIYNQcNpTITaeOLxoO~tajoOeWrNHPLL4XunM5HxZcHjRYOK1Xc3ZA0zrnBhyHa0nZ7ZV2bQzZku4rb45hrfjqRuu69tGYoK2-zIpmuEpeRAK36oSoav402RYxn7wokWlRnX7NM5RlCZkYVVSDeabRfQxOe3Hc6axe~ReMTijceV~5lxq5eY1Vc6Y~MDgSID7o87CSCDg85rUFNPgf3Hyu5vIv2qRYveqr18D8z2taFIUgRDxpkbMV-KstxRlQFnS0YHlpz8ORJw__&Key-Pair-Id=APKAJ6KCI2B6BKBQMD4A
p38
sVC5501
p39
Vhttps://live-su.cdn.pooq.co.kr/hls/C5501/1/5000/live.m3u8?Policy=eyJTdGF0ZW1lbnQiOlt7IlJlc291cmNlIjoiaHR0cCo6Ly8qLmNkbi5wb29xLmNvLmtyL2hscy9DNTUwMS8xLzUwMDAvKiIsIkNvbmRpdGlvbiI6eyJEYXRlTGVzc1RoYW4iOnsiQVdTOkVwb2NoVGltZSI6MTU1NTkyODE0OX0sIklwQWRkcmVzcyI6eyJBV1M6U291cmNlSXAiOiIxLjIyMS42MS4wLzI0In19fV0sInRpZCI6Ijc1NDkifQ__&Signature=nWzdMwakVbm4g0qelR8AIq854v5Gx20-dVsNS4nsIW~HALvysT348gc4oMLKv~3NZRqgFoqz9Lppg2HH5LJRdlIbrHe74JSuHS44Cl6B7z0fK0qJPDjYKd4hGK4G34lg5ZoY7ZV9AMMo1DdZqSalI1W0DY89Yw2ribXkw0r3PWeGHLg7n4yndmsJiC8~S~9rKDdj42CuOYUkkA7PNEwsUgUDqvLaTll08NsLp7mTkdyF4wLHnJUk91vBpDGTDllBxfNDmh72eF8bzrEU7peZA84KVeR8nIsvlAOY1h5XjV~3pNVeaTICYaTdhkJsnTES28asdWc~kzvcRN-5kZMoKA__&Key-Pair-Id=APKAJ6KCI2B6BKBQMD4A
p40
sVM06
p41
Vhttps://live-su.cdn.pooq.co.kr/hls/M06/1/5000/live.m3u8?Policy=eyJTdGF0ZW1lbnQiOlt7IlJlc291cmNlIjoiaHR0cCo6Ly8qLmNkbi5wb29xLmNvLmtyL2hscy9NMDYvMS81MDAwLyoiLCJDb25kaXRpb24iOnsiRGF0ZUxlc3NUaGFuIjp7IkFXUzpFcG9jaFRpbWUiOjE1NTI3MDAwNTJ9LCJJcEFkZHJlc3MiOnsiQVdTOlNvdXJjZUlwIjoiMS4yMjEuNjEuMC8yNCJ9fX1dLCJ0aWQiOiIxMDA5NDUxNTM2NTIifQ__&Signature=AixBZus1zr2YgiMCioS49av5ov~OfI8-wQV7uu5X0Dd58E9NsVvkE7tErby9HExBFzxdUI8fqqImAfPk4T5n0DQeTGnHLU~-rR3lP3ayCBgyy7RSvWZB6XkGcnR8B4rTD7zmCVzJoTTbGFR1BSuMfwdSN60sdocVmkZUVIRXut4gUi-u0l3RtS3u4ptWyTVB15COdq~ymVjV1yrtdO~OIFibiVqdi16GzeH8l-zaiAzG~5311eK7NYkIS1ZE2h786nZQcLlTukXEmUQnuY0m-arFtzlLC9YLEtndLNNz1QpGgmd95r9tm2qeHREAfpnd5bUbAcbQOmE7IzCBWUCLrw__&Key-Pair-Id=APKAJ6KCI2B6BKBQMD4A
p42
sVM07
p43
Vhttps://live-su.cdn.pooq.co.kr/hls/M07/1/100/radio.m3u8?Policy=eyJTdGF0ZW1lbnQiOlt7IlJlc291cmNlIjoiaHR0cCo6Ly8qLmNkbi5wb29xLmNvLmtyL2hscy9NMDcvMS8xMDAvKiIsIkNvbmRpdGlvbiI6eyJEYXRlTGVzc1RoYW4iOnsiQVdTOkVwb2NoVGltZSI6MTU1NDA4MzMzNn0sIklwQWRkcmVzcyI6eyJBV1M6U291cmNlSXAiOiIwLjAuMC4wLzAifX19XSwidGlkIjoiMTAwOTQ1MTU2OTM2In0_&Signature=Et-~o5YHvXzGFv3cs3w4Uy787Y7Y6QKpzFlZyMV4dtd0IMSvzKfKswWvrrWdC-8EoULH72omha4tDIi6t3YVGUETCUKMtdIE5UmA6uRtepD9~SWpyWSCgJdQK3qOluHvnn98gcLvXC8Yy23QQG~yKE9dMScAJ8dbgNWdzK27tbDekG2zMSvwdWc7VhklEVox858LwhuI57mkm7bNv8KgFF0QCkM11f5WkHL8MhpaKXWKrB-c09n~ee53KRSx9AK3hpYNeNr0tLCmWx1y7~I3PtCy8v9nz1Yxk-ZCT4Jkgpnq6IRHmWeBgE6271gtla6HVnl0GmbVs1ZysHbhGMFSsQ__&Key-Pair-Id=APKAJ6KCI2B6BKBQMD4A
p44
sVM02
p45
Vhttps://live-su.cdn.pooq.co.kr/hls/M02/1/5000/live.m3u8?Policy=eyJTdGF0ZW1lbnQiOlt7IlJlc291cmNlIjoiaHR0cCo6Ly8qLmNkbi5wb29xLmNvLmtyL2hscy9NMDIvMS81MDAwLyoiLCJDb25kaXRpb24iOnsiRGF0ZUxlc3NUaGFuIjp7IkFXUzpFcG9jaFRpbWUiOjE1NTY4NjY2Mzl9LCJJcEFkZHJlc3MiOnsiQVdTOlNvdXJjZUlwIjoiMS4yMjEuNjEuMC8yNCJ9fX1dLCJ0aWQiOiI2MDM5In0_&Signature=DWTOJxNBHIgU3-nCjoe66jPxsgu69sZd2tLFYKAOfBTpmXEBSL3WZ7oI2GEW~IRhAD54Lt9huOqLiVlSHpPShyA9oZtP6AowLRbK6WXCIlc76FLEKrXAx7PZXZY1WOeiOzKOIiTpP0mq1W-HAK2eRgIipPwmygbq24fDXt9VFrpY2O26vSgi6mY2KjZYcBtfHAgzg7ZS53Q-7fFd91mMMxFaSYxU7UuQsEjgDrgeV9o3ahKwOxsI0kuO4OpIMJH6AD-hXqSam-~DpnP2nRzsXXGUJHMgFBn0k~0A27XfwPOLBMqjVgftInTABaaJcOjvdxbuK8R8Z6u5vdpQuUW4UA__&Key-Pair-Id=APKAJ6KCI2B6BKBQMD4A
p46
sVM03
p47
Vhttps://live-su.cdn.pooq.co.kr/hls/M03/1/5000/live.m3u8?Policy=eyJTdGF0ZW1lbnQiOlt7IlJlc291cmNlIjoiaHR0cCo6Ly8qLmNkbi5wb29xLmNvLmtyL2hscy9NMDMvMS81MDAwLyoiLCJDb25kaXRpb24iOnsiRGF0ZUxlc3NUaGFuIjp7IkFXUzpFcG9jaFRpbWUiOjE1NTg2MDI0OTV9LCJJcEFkZHJlc3MiOnsiQVdTOlNvdXJjZUlwIjoiMS4yMjEuNjEuMC8yNCJ9fX1dLCJ0aWQiOiIxODk1In0_&Signature=Psgi-F2YF4QieJ9AqzPX3DnA942ttVGldnjSfnd-rXU-ucqchA5NRrfQpGMePyX96CDkSYt1m21UhzCT-SpKSpNaRemH~Wy0sWp7RTGtHht-A9D7FGLH~pnJdd5j1IomqrofAaXBQKc9eo~KJGJbtMc3oU2Ygx9hVSzAJLzVb32X0Or8jREW1x0qWAWav15L9znfpJd8sqkwauBozwP7nLqgno2R8ErQsA~Tip0OORKYbaeJTRpO3dPmm17LYikSXMlGu9cvlS8eRRC6exeUdD5xs2L-CddrDkOwi95e~jwKI1YG2ora5mZ6mqQ2dj9bXJAzc-L~J2H3JQJKnluu~A__&Key-Pair-Id=APKAJ6KCI2B6BKBQMD4A
p48
sVM01
p49
Vhttps://live-su.cdn.pooq.co.kr/hls/M01/1/5000/live.m3u8?Policy=eyJTdGF0ZW1lbnQiOlt7IlJlc291cmNlIjoiaHR0cCo6Ly8qLmNkbi5wb29xLmNvLmtyL2hscy9NMDEvMS81MDAwLyoiLCJDb25kaXRpb24iOnsiRGF0ZUxlc3NUaGFuIjp7IkFXUzpFcG9jaFRpbWUiOjE1NjA4MjU0MDd9LCJJcEFkZHJlc3MiOnsiQVdTOlNvdXJjZUlwIjoiMS4yMjEuNjEuMC8yNCJ9fX1dLCJ0aWQiOiI0ODA3In0_&Signature=lHcYNpmJ4g0nbVlgiPPVsEDGQIlGxOAoNbM0D~pw1rN2NCNwYFgzuJaJbVFzrqRT3JeagCTiQsEozjSlF~Xl9Bust8Kkd-OXPA4l8qdoA8KrdAtDfoKSfuYzOS88x8GmihQOZE70evoy0cAKlCtuidqnDohqcGcSwEgCEQY5JrEnJgKwn601ZlTQBRz73ZNW1SXHhUqZ~QP7ILezKRGPC02MycCBf7ZT9fOByKXAP7yAhmCedcJSEvtL4e7VePk9VaepHqhSzNN3RtXxIo1FXoZU6uzVEno6RfN~aahFx7ttr0bXqURJfe0T0dC2WPXaWx9ZZRcGGlJRJQ2vh87x~Q__&Key-Pair-Id=APKAJ6KCI2B6BKBQMD4A
p50
sVC4901
p51
Vhttps://live-su.cdn.pooq.co.kr/hls/C4901/1/2000/live.m3u8?Policy=eyJTdGF0ZW1lbnQiOlt7IlJlc291cmNlIjoiaHR0cCo6Ly8qLmNkbi5wb29xLmNvLmtyL2hscy9DNDkwMS8xLzIwMDAvKiIsIkNvbmRpdGlvbiI6eyJEYXRlTGVzc1RoYW4iOnsiQVdTOkVwb2NoVGltZSI6MTUzODkzODgzNX0sIklwQWRkcmVzcyI6eyJBV1M6U291cmNlSXAiOiIxMjUuMTgzLjIwNC4wLzI0In19fV0sInRpZCI6IjczNTA3NDIyNDM1In0_&Signature=C0I0YKwqDurDvfT8fv~YiCnJNnWuKNg7uvtvm-5zHTFBR8R97wwtT-QRFgw~XX-~HTmR-6Wr6HUIrK29RgLDEBy-JD7NTUI7SQPkj2ToO6k5dLV3c-~6IziZW18KrvVO8eHH4cU2CVBmY-BZB3n78oaVVfU9axVf~43Vk3IdXtH1-UgAFWAKM5Vx4hsKLdu0Vb~FZ47-NTWWnrG9Pbpo6DBBVPVGxBUbPIchi5YBN79WTBmWHn2h7xe8oT7CqLFJGZRntH9Lr1syoAhK1H~BYY-H9xYDlSxkQUO~y64x24thZEspDUoIpABUNVMVEF-k75r3Sznl0yUEw58RYN5YrQ__&Key-Pair-Id=APKAJ6KCI2B6BKBQMD4A
p52
sVC4401
p53
Vhttps://live-su.cdn.pooq.co.kr/hls/C4401/1/5000/live.m3u8?Policy=eyJTdGF0ZW1lbnQiOlt7IlJlc291cmNlIjoiaHR0cCo6Ly8qLmNkbi5wb29xLmNvLmtyL2hscy9DNDQwMS8xLzUwMDAvKiIsIkNvbmRpdGlvbiI6eyJEYXRlTGVzc1RoYW4iOnsiQVdTOkVwb2NoVGltZSI6MTU1MjczMzMyMH0sIklwQWRkcmVzcyI6eyJBV1M6U291cmNlSXAiOiIxLjIyMS42MS4wLzI0In19fV0sInRpZCI6IjEwMDk0NTE1NjkyMCJ9&Signature=hoV2Vwmp7gqLty8vb4HZq2jeWGa8rMpPUu8b4~YZ5cPn1Is0f6jmdV1OuVCwZBeNgf8K5Ifb6vg52hO3WOQkHbbdjdSEKcPLZC-6PAAkokFRO2CeZcEvPCnR6m1co~CX34xxDil4jGjzdS2Nre5DiuoQ~ywHiqexTz-vPWRWK9wXD~O-GdUjPm17YOFp58qFbR6rgSytC2PlFzOYHCUcr2SKBzOX~26vhOw-GzKBKtmwn9tDaqrY4Xkx2fimqAp15W31eJhA6Qjqa24b6YkskcdYEdZ85dsn0iKaNBjTr-KXAVgQ-yzd1jpf~lU2fXBYr2ZOpHya65-UUUdrgHYYzw__&Key-Pair-Id=APKAJ6KCI2B6BKBQMD4A
p54
sVM08
p55
Vhttps://live-su.cdn.pooq.co.kr/hls/M08/1/100/radio.m3u8?Policy=eyJTdGF0ZW1lbnQiOlt7IlJlc291cmNlIjoiaHR0cCo6Ly8qLmNkbi5wb29xLmNvLmtyL2hscy9NMDgvMS8xMDAvKiIsIkNvbmRpdGlvbiI6eyJEYXRlTGVzc1RoYW4iOnsiQVdTOkVwb2NoVGltZSI6MTUzODkzNzQyM30sIklwQWRkcmVzcyI6eyJBV1M6U291cmNlSXAiOiIwLjAuMC4wLzAifX19XSwidGlkIjoiNzM1MDc0MjEwMjMifQ__&Signature=jAEFROn0Rv5Km3jSxMgWe5kOv~41A2MlclSuZb5XwXtCmY9LOkJ4ZlWA9oE1Z1oUgcsvaA3HIkbS1DiQYgO4BXrr-ExcfTFKl-1RLfuwKE9SmswJOY4l3HIHhYHlSeBC6JL0kMCmfETkJIjd47zjBlakNVdPqNRObK54YMe39pMci6LXRrppOIuepNaBDm1M9IuoUrV5OvWsQpGvdgyRq7KryVT6FC0glnTaTJiBbx-5pMlvmzLiVSVzYdtWh3oZInEBoUFzHdJz2M00wi-IDgkusETsPQiew2h6kiqcjIU~6h9HNEV7uGOwByOAh5heedKj1Ytny8jOeMONGa2K3Q__&Key-Pair-Id=APKAJ6KCI2B6BKBQMD4A
p56
sVK01
p57
Vhttps://live-su.cdn.pooq.co.kr/hls/K01/1/5000/live.m3u8?Policy=eyJTdGF0ZW1lbnQiOlt7IlJlc291cmNlIjoiaHR0cCo6Ly8qLmNkbi5wb29xLmNvLmtyL2hscy9LMDEvMS81MDAwLyoiLCJDb25kaXRpb24iOnsiRGF0ZUxlc3NUaGFuIjp7IkFXUzpFcG9jaFRpbWUiOjE1NTg1MTEwNDh9LCJJcEFkZHJlc3MiOnsiQVdTOlNvdXJjZUlwIjoiMS4yMjEuNjEuMC8yNCJ9fX1dLCJ0aWQiOiIwNDQ4In0_&Signature=ip4AIZOe5pAlWDAqGTHlglARecsvYbKb4MXboGL1kDK1fJlboxiKr7w6uMREofqAi~hmdyZHds99o9ca7NJCzxkaD1zcyOp3-ZILuZyBUXVWoKhSCyg9Al2djt7oyVnmk0P5IV2ftQPbCmhvuo05lM~d2TvZsnR1ZY~1mrUTQ9d001k1nWugkWVV9SayR0-mSvXFqIHCbBqNbeaIGym5Cwkot87hSYx~RelQqoxit90zwtPdci5hJCwGZCLHIKwrgIJHkX8LjeLCcNEvaPtmwsOqOk8x6oZs~szNY8kC88DjO9P52BHBMrKEhMd7tfm1R0bsao5gbd0PRzKOpbJO2w__&Key-Pair-Id=APKAJ6KCI2B6BKBQMD4A
p58
sVK02
p59
Vhttps://live-su.cdn.pooq.co.kr/hls/K02/1/5000/live.m3u8?Policy=eyJTdGF0ZW1lbnQiOlt7IlJlc291cmNlIjoiaHR0cCo6Ly8qLmNkbi5wb29xLmNvLmtyL2hscy9LMDIvMS81MDAwLyoiLCJDb25kaXRpb24iOnsiRGF0ZUxlc3NUaGFuIjp7IkFXUzpFcG9jaFRpbWUiOjE1NjA4MjU0MjJ9LCJJcEFkZHJlc3MiOnsiQVdTOlNvdXJjZUlwIjoiMS4yMjEuNjEuMC8yNCJ9fX1dLCJ0aWQiOiI0ODIyIn0_&Signature=ErYc6i5vaspgHuTowwuHSQLUbuHZFgzbRb3DAtszZ3wWncigSiqV4srozduo3bRhyDua~JNx9VHbqJztjtaZCooMS821fvPRHwpckVBV9BOMWF2lOK6G9c8mKbtlSidjq9LF5SeHT1RPlYi5afcJRNxrBjmcw27iZRbMIAGrAFFx3VS9IRFFY4UOQXWdHQm63NURX94I1E7jCgmTlkhILlHvMB-jwspOWXk-~JGFT6VnqKL8zc4ZDLqgfuq1K6coOWcaw5HZFFoh6ig0bncEwUPLgxMpvMc4QOdnbhKC5Bd7Cbvl6jO2z4ybPsxNFHZwaxaBXpOWbcONWQTi5tTvMw__&Key-Pair-Id=APKAJ6KCI2B6BKBQMD4A
p60
sVK04
p61
Vhttps://live-su.cdn.pooq.co.kr/hls/K04/1/2000/live.m3u8?Policy=eyJTdGF0ZW1lbnQiOlt7IlJlc291cmNlIjoiaHR0cCo6Ly8qLmNkbi5wb29xLmNvLmtyL2hscy9LMDQvMS8yMDAwLyoiLCJDb25kaXRpb24iOnsiRGF0ZUxlc3NUaGFuIjp7IkFXUzpFcG9jaFRpbWUiOjE1Mzk1ODE0MDZ9LCJJcEFkZHJlc3MiOnsiQVdTOlNvdXJjZUlwIjoiMTI1LjE4My4yMDQuMC8yNCJ9fX1dLCJ0aWQiOiI3MzUwNzQyNTAwNiJ9&Signature=g0sQlwaXkrWLc9J~J39Bamm2-5eZHRPMpVuf~fZsaVe4etylCuC7RtxOl9gHgiiBQv~elcTTkl4PAvJ2JMbx5PZ1mAS5P7rvSOb4yBVTFNlaF1vHP7OF5i-CH3B~HxJKU2BcOjlgyZ0oOcRx2lp464oD0d0FqjEmFkifa9hy6sLVkumIY2XmfRXFIg9XUG7z1va3QlgAtDL4h4ayRx40rLu4XN3pJJD41h8lYphg4UTSMRvpqCsAh02hnYAX5ga1xn85tksSGY6uJfnvl1pjtgQTiMzo7gJx0zHu1Gz-NCvDwMRYfJfdgVR0OWIQqhR2609WsPVFnWT2JHdYkf~fDQ__&Key-Pair-Id=APKAJ6KCI2B6BKBQMD4A
p62
sVK05
p63
Vhttps://live-su.cdn.pooq.co.kr/hls/K05/1/500/live.m3u8?Policy=eyJTdGF0ZW1lbnQiOlt7IlJlc291cmNlIjoiaHR0cCo6Ly8qLmNkbi5wb29xLmNvLmtyL2hscy9LMDUvMS81MDAvKiIsIkNvbmRpdGlvbiI6eyJEYXRlTGVzc1RoYW4iOnsiQVdTOkVwb2NoVGltZSI6MTUzOTY2MDIyNn0sIklwQWRkcmVzcyI6eyJBV1M6U291cmNlSXAiOiIxMjUuMTgzLjIwNC4wLzI0In19fV0sInRpZCI6IjczNTA3NDIzODI2In0_&Signature=jkao59lOh-2CeU~YFbQxAN0qvtU3OpKfbmbsm8rhfLny5Mn428r6A4XPbt64FWPC1TtN4HWPRy7YjCIXWUocR9fCOwpTQvFBega0H8YOI-wnW~CZn4c3BwgoVQfo7S86TpNRbdQLSZQC~3BXBADWSJBw4NuSZJNtwtW6TJFRDocAFFGTlDPjkBDjZJVCn-dfQb7e2n46fLvuq1pYOlmI-Jx~QHITnPN8x-HCdoMHY-uHc7736i0z0WTl6kIx8l1-cRA56DorQUAfUar3HWwrsuxeqTkkSwD2zCtUGC47vshfaaY4NH2BoPCEEkMdq8BWW9JeiwbxSsMflrITYEbQ2A__&Key-Pair-Id=APKAJ6KCI2B6BKBQMD4A
p64
sVK06
p65
Vhttps://live-su.cdn.pooq.co.kr/hls/K06/1/2000/live.m3u8?Policy=eyJTdGF0ZW1lbnQiOlt7IlJlc291cmNlIjoiaHR0cCo6Ly8qLmNkbi5wb29xLmNvLmtyL2hscy9LMDYvMS8yMDAwLyoiLCJDb25kaXRpb24iOnsiRGF0ZUxlc3NUaGFuIjp7IkFXUzpFcG9jaFRpbWUiOjE1NTYwMjQ5MzN9LCJJcEFkZHJlc3MiOnsiQVdTOlNvdXJjZUlwIjoiMS4yMjEuNjEuMC8yNCJ9fX1dLCJ0aWQiOiI0MzMzIn0_&Signature=bVq~nMhXCiAtCNuDe64AqXtjNm6iSmBO75XfA6jA-QArdJ597TDVvUjIVvgPru3AmJ7gomjY-hL2y4okITbmyXP6iNsqIUfyXmE6A1WkUrSq-unnGzCNEbfS4j2qlVa6gwtHsl9EGxAV8rB~fIdkmlPnJpqpWp8WvMXdgOLuvovsEj63m9e2VgmQx6P-QzP8y2AWKqxnrKU-xp3hQXHpxpgOf5PRsFCWSsXoNtF7EyZGU~XLcn8FIKjp33WCqH5GLlyMAyQzV80edGEtbToASjpOpo8doE1YN51X9fW7WBASXCloB-EucJf4gffWyW9t5l0xOFvZG54GTdws~FJ8nw__&Key-Pair-Id=APKAJ6KCI2B6BKBQMD4A
p66
sVK07
p67
Vhttps://live-su.cdn.pooq.co.kr/hls/K07/1/100/radio.m3u8?Policy=eyJTdGF0ZW1lbnQiOlt7IlJlc291cmNlIjoiaHR0cCo6Ly8qLmNkbi5wb29xLmNvLmtyL2hscy9LMDcvMS8xMDAvKiIsIkNvbmRpdGlvbiI6eyJEYXRlTGVzc1RoYW4iOnsiQVdTOkVwb2NoVGltZSI6MTU1MzY5NDMzOX0sIklwQWRkcmVzcyI6eyJBV1M6U291cmNlSXAiOiIwLjAuMC4wLzAifX19XSwidGlkIjoiMTAwOTQ1MTU3OTM5In0_&Signature=gWWmeH7jFvIXrhwlDgWMDQO6gVn71ENbAzH4zsFXL5AoLDz6xNyO7Q2bmHfHXebmTmN5ET-1XIqqg3UmXreNnWddsNmV8f71e4rACNB9mIrwG6XPUzOTFwLlLpIT9RG9Xsx1OEIUsttIDMSPmIQWQBI6~QKRPOo9SDVXkomio2WxjQ4BB5ysXLONj6Yvw0j-6ELVe9-IYvgG34jJJoQB2Itn5Qze-wRlVsvlxfnDMqIWo~1Bsjk9zK2-W5Rjbx83xEGhL5qFJmZu8b~RtpJIbwBiV-4GJ25~peYAf8wYCATx8SV4s6tE2uJk2R2lJdKCp-qkXiDuDBfwaKeGAcGeNA__&Key-Pair-Id=APKAJ6KCI2B6BKBQMD4A
p68
sVE06
p69
Vhttps://live-su.cdn.pooq.co.kr/hls/E06/1/100/radio.m3u8?Policy=eyJTdGF0ZW1lbnQiOlt7IlJlc291cmNlIjoiaHR0cCo6Ly8qLmNkbi5wb29xLmNvLmtyL2hscy9FMDYvMS8xMDAvKiIsIkNvbmRpdGlvbiI6eyJEYXRlTGVzc1RoYW4iOnsiQVdTOkVwb2NoVGltZSI6MTU2MDkzNDYwNX0sIklwQWRkcmVzcyI6eyJBV1M6U291cmNlSXAiOiIwLjAuMC4wLzAifX19XSwidGlkIjoiMTAwOTQ1MTU4MjA1In0_&Signature=ae79H~FdcHUG6AZlUKLwpIXoUUdBUuq5Pwv8HWbzqAPuBGrymetaD3q3qM0iBgP52xAzWCQUxjDa10CzByamZi4-hU0Lh-vlLBi-OfKt4BzKogVAzhgFrpozIgAzSqhflheLn5TdbcKfC7prLYXtmhk-S~1bx0RmULJr8OZdQN1Ak4Xgs5NRF9iD8KB-Brl3XM3ovluu57yvlZ7XbuijFYw5WbE8Xleg950InC3lqHqH2FboKLBixGS0O7JoYV8ZjcuNAmCi19keHcmMVWDyQTAPX-MQvGh5yLcraIg0wv-r4SjDj2BjQsjbuE-zgrW-3Zo6D0apYsFn0vgxskW01Q__&Key-Pair-Id=APKAJ6KCI2B6BKBQMD4A
p70
sVC4201
p71
Vhttps://live-su.cdn.pooq.co.kr/hls/C4201/1/2000/live.m3u8?Policy=eyJTdGF0ZW1lbnQiOlt7IlJlc291cmNlIjoiaHR0cCo6Ly8qLmNkbi5wb29xLmNvLmtyL2hscy9DNDIwMS8xLzIwMDAvKiIsIkNvbmRpdGlvbiI6eyJEYXRlTGVzc1RoYW4iOnsiQVdTOkVwb2NoVGltZSI6MTU1NTMzMDI0MX0sIklwQWRkcmVzcyI6eyJBV1M6U291cmNlSXAiOiIxLjIyMS42MS4wLzI0In19fV0sInRpZCI6IjEwMDk0NTE1Mzg0MSJ9&Signature=XO2E87JhjVo6Z-yfH~TNH6v37~1RkvyIrpGlsq9~AbihbLcF~tOzx~n3ZTQg-2XlX2K7jEttbtP0OklP0zP516g9xqr2RP7j8XM-poiQT-zHhnGCiJllYJVPGLRACyvLLfug0igWW-XFRie-gkLNi5dh4z2qYjjTw7vl7HfayTJJ9MlAU9LaaFQAwFnX6OZ6Cf71G-0TwOckjy1zLrlpUQu97E48Jhrn1Fdu6nO6QsVjoMRNbZctf9jcsViANowiCj9ubDdBhiawR9tjBM5rASfK2wGWHqvxkh4Cm4sdCXCcUyYe3n8P6k5qTckucHq9YdVuYvDWDTYsFe1NQWJExA__&Key-Pair-Id=APKAJ6KCI2B6BKBQMD4A
p72
sVC4202
p73
Vhttps://live-su.cdn.pooq.co.kr/hls/C4202/1/2000/live.m3u8?Policy=eyJTdGF0ZW1lbnQiOlt7IlJlc291cmNlIjoiaHR0cCo6Ly8qLmNkbi5wb29xLmNvLmtyL2hscy9DNDIwMi8xLzIwMDAvKiIsIkNvbmRpdGlvbiI6eyJEYXRlTGVzc1RoYW4iOnsiQVdTOkVwb2NoVGltZSI6MTU1NTM4ODc2Nn0sIklwQWRkcmVzcyI6eyJBV1M6U291cmNlSXAiOiIxLjIyMS42MS4wLzI0In19fV0sInRpZCI6IjEwMDk0NTE1MjM2NiJ9&Signature=ddpSINulaJWH12zR6DkSN5gfTE38k-gLABpHW0LW4x5z0NbKCCPSBq1KmopsHPFl8Uh7f1V9QMBklIqTEINUuIX09GobkdfCU71IrcqDWP2i1vREWiLYApQ0kIj4IDWfG7QzDAzeJtKibJ-S6dxFzWgEKdRWInDJAyPFhGzsTw1DcnuaB6eUPvUX6eFSNOAk7n9j0Xv-By6y8hHJqvs5K4eWCTENbsPfUQj9aqw7Dg5jSPb9jAxseoMQ6dPvlDZR-y1qTomjckZCtfiyIsrIwgl8wy0uD3yqoMou0B28OFl-s0Ldj8o1iA65L0Ac5G2xWDYAb~CNzzOOE2lJhZbq4g__&Key-Pair-Id=APKAJ6KCI2B6BKBQMD4A
p74
sVE05
p75
Vhttps://live-su.cdn.pooq.co.kr/hls/E05/1/2000/live.m3u8?Policy=eyJTdGF0ZW1lbnQiOlt7IlJlc291cmNlIjoiaHR0cCo6Ly8qLmNkbi5wb29xLmNvLmtyL2hscy9FMDUvMS8yMDAwLyoiLCJDb25kaXRpb24iOnsiRGF0ZUxlc3NUaGFuIjp7IkFXUzpFcG9jaFRpbWUiOjE1Mzg5NDM4NDd9LCJJcEFkZHJlc3MiOnsiQVdTOlNvdXJjZUlwIjoiMTI1LjE4My4yMDQuMC8yNCJ9fX1dLCJ0aWQiOiI3MzUwNzQyNzQ0NyJ9&Signature=Vxq42tKzU5SSMzWA0YPAh3lqRkQSFzTIaMiUE6sI6U1GpZFOomOBpDoBozOaugsclYuN9Bn0MDJZ1MptF8CyDtKtvLsydNAODGlcUeiVmGxtC5Uq01jcvJ1FewjwzNcnWgSE5SmJbZkqcjcctWQMyxE3GdmmgzLkr~C77tfKnPGmwCyjqd0TyvFYwU8woGtSJMmckclwmVrMDpIDZlAihJpUQMEV6VZdqaC1MNq9ZL1u5NwW64m-WDo3aSmBvBmaph2eFWYO3R~wpCvJsxgfO~cq2PrgCzzLllrBLcYnM2j4hDQ7MkKzUcipssJ3hffgfqNM80cowvQNrb8oYYhVVg__&Key-Pair-Id=APKAJ6KCI2B6BKBQMD4A
p76
sVD02
p77
Vhttps://live-su.cdn.pooq.co.kr/hls/D02/1/2000/live.m3u8?Policy=eyJTdGF0ZW1lbnQiOlt7IlJlc291cmNlIjoiaHR0cCo6Ly8qLmNkbi5wb29xLmNvLmtyL2hscy9EMDIvMS8yMDAwLyoiLCJDb25kaXRpb24iOnsiRGF0ZUxlc3NUaGFuIjp7IkFXUzpFcG9jaFRpbWUiOjE1NTg1MTA0MDV9LCJJcEFkZHJlc3MiOnsiQVdTOlNvdXJjZUlwIjoiMS4yMjEuNjEuMC8yNCJ9fX1dLCJ0aWQiOiI5ODA1In0_&Signature=GeeionB~vP74K5Io0G~yBwMljvz~dosNJ1cDJhNflFuRSB11ImrXrrbq1ZWN56nqfZCEtgK6fUyOA4thj9W~0M7tIsF8-y0QEnJOff4LKjdyU36Q8NNDT0fRkH7rsUNKUgmww1fxNfcty4SjjgiZKQhQy6ZiXeoev5qlBPz~JCIv47J24d5hpO7N5GsN3yb-W90d3vAYbHn3bXUghyWzWg5PoyB~X2-T5AIQEXRHIdfCUy8UYhT4Y0eZx-bdw0ohrZ0hRYsrVn-tFIqwaaueJAydC0M7Vg8LoXu2BYf6MH7LnBF0P-4bHIDxXB-9yGS1tLBFwWUUYZ2J71lZKOt8mg__&Key-Pair-Id=APKAJ6KCI2B6BKBQMD4A
p78
sVK09
p79
Vhttps://live-su.cdn.pooq.co.kr/hls/K09/1/2000/live.m3u8?Policy=eyJTdGF0ZW1lbnQiOlt7IlJlc291cmNlIjoiaHR0cCo6Ly8qLmNkbi5wb29xLmNvLmtyL2hscy9LMDkvMS8yMDAwLyoiLCJDb25kaXRpb24iOnsiRGF0ZUxlc3NUaGFuIjp7IkFXUzpFcG9jaFRpbWUiOjE1NTUzMDI5Nzh9LCJJcEFkZHJlc3MiOnsiQVdTOlNvdXJjZUlwIjoiMS4yMjEuNjEuMC8yNCJ9fX1dLCJ0aWQiOiIyMzc4In0_&Signature=IrQZFCyDROLdodFN6GTUORkQKnSYJfdFEQHs4dXqkoR~MVEozRAoYNKixg4qXsrTjrS-nKOkrr97s55gIj9egFfGW6ZjwTnC6CpyQIm10tER~~-96X2iHGj3XZYYVV6pW7IUgPUuzVllF1NRdy5dzFhjjohdp8mgccYzphgTYT97TFlg4wAbbLNALy5JPtTOJxUtnlMxvCruXoOGac4iJ5kQLYJItmYlINGISsCgzQ9qx7Njp2WlIBa4NHuXBNT18legUVGZrPDT8vlGYRZIJc8KERtcxTxJ-UPXJ7hMO0~T8cx7SfckqeJUVEMCtAX-HJu79FoLwXrOUkMoGeRoYw__&Key-Pair-Id=APKAJ6KCI2B6BKBQMD4A
p80
sVE01
p81
Vhttps://live-su.cdn.pooq.co.kr/hls/E01/1/5000/live.m3u8?Policy=eyJTdGF0ZW1lbnQiOlt7IlJlc291cmNlIjoiaHR0cCo6Ly8qLmNkbi5wb29xLmNvLmtyL2hscy9FMDEvMS81MDAwLyoiLCJDb25kaXRpb24iOnsiRGF0ZUxlc3NUaGFuIjp7IkFXUzpFcG9jaFRpbWUiOjE1NTg1MTEwNjJ9LCJJcEFkZHJlc3MiOnsiQVdTOlNvdXJjZUlwIjoiMS4yMjEuNjEuMC8yNCJ9fX1dLCJ0aWQiOiIwNDYyIn0_&Signature=nP4mRS3wExo~Ipg3uT82P4vkqZtdn-tWArp1gL9jCqjc7ksOqkqdLBpVdGuMyiMiyG0CVPWqLpURhsQ~JOyF8bkBMZt3ec~VCNXuC3RggnqwW8PLigEBhPLmH8FpBZK8IhfQTL3yhEmRw-n8~IdQ0EIX4mxA4f4878yLx4JevckFwQqx-e5q9HZOb0nXSjksr3NWGKqYjFHoBT8O02zicak1jEXgRbPwwvG5u5qdOCDvqPYsAqk51luJ7asBl1i5KRVtXdDz7vwxLoBc41TiqG~t6zhXgWtnZoAOn-sWJgRmPQF0Wd-Qh7E4aXzheXLl1e2~gO7pBi6J-neSKXx8ug__&Key-Pair-Id=APKAJ6KCI2B6BKBQMD4A
p82
sVC2304
p83
Vhttps://live-su.cdn.pooq.co.kr/hls/C2304/1/5000/live.m3u8?Policy=eyJTdGF0ZW1lbnQiOlt7IlJlc291cmNlIjoiaHR0cCo6Ly8qLmNkbi5wb29xLmNvLmtyL2hscy9DMjMwNC8xLzUwMDAvKiIsIkNvbmRpdGlvbiI6eyJEYXRlTGVzc1RoYW4iOnsiQVdTOkVwb2NoVGltZSI6MTU1NTQxNjA5N30sIklwQWRkcmVzcyI6eyJBV1M6U291cmNlSXAiOiIxLjIyMS42MS4wLzI0In19fV0sInRpZCI6IjU0OTcifQ__&Signature=AdVTRoNSxXMQYnpUCnIFYYtApMidSljD0nHghkQJ8u~nw5JGuXK8S6GNkdXBxx4vL-y84gK64FPCZpGrSLIO4ML8XWJ2Vum5SSBUQjgFYHMuaxfqbCbrNn0YcjqDxSQGQ8F73UVpm25GvSsFJFxEsVPkM1kTskEHwi468Xzm4wKwLLgVbJZfbS6EahI0B73yBej33nCAc8p2jgq1WvpiXFDq0AcpSwrJOk7cd2OYhs~QfIxBvc9boINgTEad-It2qFk9~6K9TIRmbruz1padqHZNJa6O0blGRKAr12GAT6ix8aBdwsNg2Xmf33hAm0LzovjuATLxQmc3h-44l29MDQ__&Key-Pair-Id=APKAJ6KCI2B6BKBQMD4A
p84
sVPM2
p85
Vhttps://live-su.cdn.pooq.co.kr/hls/PM2/1/2000/live.m3u8?Policy=eyJTdGF0ZW1lbnQiOlt7IlJlc291cmNlIjoiaHR0cCo6Ly8qLmNkbi5wb29xLmNvLmtyL2hscy9QTTIvMS8yMDAwLyoiLCJDb25kaXRpb24iOnsiRGF0ZUxlc3NUaGFuIjp7IkFXUzpFcG9jaFRpbWUiOjE1NTI3MDAwOTR9LCJJcEFkZHJlc3MiOnsiQVdTOlNvdXJjZUlwIjoiMS4yMjEuNjEuMC8yNCJ9fX1dLCJ0aWQiOiIxMDA5NDUxNTM2OTQifQ__&Signature=naBKliuKJWI1D4C3GjvTftY1f5i18Ug~n-M9Fo4poebUi3WsZ2zpXJs7-Xwbz~CadcVySfmQmglEiUHqrYlezj3f89325eIpV8xNazTCvQVwTO6Ris4grON2w1nxs38Bmqrd7vQx67mRsoCtvDpcV~unccdCGP1SjNImNLTyMqyL6tkINUljZ9rnFm8~58BWKLr5ODXJWTVoo2pPJLx03vIL4TSYnzRa-ClpfON0ckWuwTAaRZDfpMz9EZo5ojpxhMOhFA~t5Ox4T2Eecyy2eyGQakNUnnbFIs9Ph7JckzELKz0tKzOOQmH-ZJCGOxepoFFWltdallVtsQ9b2ZwkJw__&Key-Pair-Id=APKAJ6KCI2B6BKBQMD4A
p86
sVC2301
p87
Vhttps://live-su.cdn.pooq.co.kr/hls/C2301/1/5000/live.m3u8?Policy=eyJTdGF0ZW1lbnQiOlt7IlJlc291cmNlIjoiaHR0cCo6Ly8qLmNkbi5wb29xLmNvLmtyL2hscy9DMjMwMS8xLzUwMDAvKiIsIkNvbmRpdGlvbiI6eyJEYXRlTGVzc1RoYW4iOnsiQVdTOkVwb2NoVGltZSI6MTU1OTgwNTMyNn0sIklwQWRkcmVzcyI6eyJBV1M6U291cmNlSXAiOiIxLjIyMS42MS4wLzI0In19fV0sInRpZCI6IjQ3MjYifQ__&Signature=AZJK0L7~E45GXfJMAly6srn9UaTVSc5zmiqWqssk0ZOy8EPINHteXP2ULDznXKJMGLQwBPzvTa6S4vJZHQsDnGtcusgrExLThvW8JHIvqeRqXxEjtr-~QAH-uqsTXgAzDHPMbrFFdrrHYWqE-DQD~ua18qbd52DvVNhuVPojzkMFyqQG26ZQpKOLNY~HX31BG6O2mepzkrq~RR2N7qMmBTY5Eq4vEdUQN7CiZhpQbQfGm6PkCXszAgmhxnc9PjQ6sz7Xyb-XANaSJLqxfqSKv3xEYIWRuW33GlmiNfr59yZDewbw92XQRtW7B4evUdCybrkFrx58QVgNegRPvWDaOg__&Key-Pair-Id=APKAJ6KCI2B6BKBQMD4A
p88
sVC2101
p89
Vhttps://live-su.cdn.pooq.co.kr/hls/C2101/1/5000/live.m3u8?Policy=eyJTdGF0ZW1lbnQiOlt7IlJlc291cmNlIjoiaHR0cCo6Ly8qLmNkbi5wb29xLmNvLmtyL2hscy9DMjEwMS8xLzUwMDAvKiIsIkNvbmRpdGlvbiI6eyJEYXRlTGVzc1RoYW4iOnsiQVdTOkVwb2NoVGltZSI6MTUzODkzODcwNX0sIklwQWRkcmVzcyI6eyJBV1M6U291cmNlSXAiOiIxMjUuMTgzLjIwNC4wLzI0In19fV0sInRpZCI6IjczNTA3NDIyMzA1In0_&Signature=EX4guOttcgCBfcneKdsQL155dAcH0jYodzaO8O2YUqTp6JG88UA3o3T43Y-Qcd0CPn5RbUJfE9ioX0YWRwTguh-3gxNaFb7BDd6nenrJMlNK-XnW4dRBnqcA9vFWwGxlvAi5jVNz3WrGhkblp2Uhy-EwaDXLcE35WYNy8yNLG9exNZNYQTzBe7wIx73elt5suBMIn6xPemss1cdOdrXRaBLJr-1KeapvEzSoKyFdYNgKNjOKJYcrIoZgPCiMeWCmzj83I6k5x1QZ35ozvKN6yrqlRlJcxuVKopWDLsgU1ycy4zFbScAc5xqlmHl1jxJbLcYA0J0xo~8TlHayh8xtIA__&Key-Pair-Id=APKAJ6KCI2B6BKBQMD4A
p90
sVS03
p91
Vhttps://live-su.cdn.pooq.co.kr/hls/S03/1/5000/live.m3u8?Policy=eyJTdGF0ZW1lbnQiOlt7IlJlc291cmNlIjoiaHR0cCo6Ly8qLmNkbi5wb29xLmNvLmtyL2hscy9TMDMvMS81MDAwLyoiLCJDb25kaXRpb24iOnsiRGF0ZUxlc3NUaGFuIjp7IkFXUzpFcG9jaFRpbWUiOjE1Mzk1ODI1ODB9LCJJcEFkZHJlc3MiOnsiQVdTOlNvdXJjZUlwIjoiMTI1LjE4My4yMDQuMC8yNCJ9fX1dLCJ0aWQiOiI3MzUwNzQyNjE4MCJ9&Signature=OarVPRSEQW3~bscjeW7nH-v14D5BdEtK8gwTH-KB9pM4GftG9hTF-iUyd80bs77BGqSFAtorFEhRDADIi2h0IUiBx2roxrYA1ln-jhZimvYjK~WZqm63EaB0LdC2dsUJSFyyNNnZSaFJV7ZojcApH5qk12V~FVeY5H5C6yObMNNHFbn96iYYOqVI84buUUDVOyS6wCOKOiCwjM4tOCBMP-g1U0FI-AdJZ6Nc51aMDltq3TEXpqhHodK5R58eTSuIq76CUyLmaXE9CxJra~N9qW7ZzxCQYmTZFprGRVgzmEOz1KSGCzCEPicv334LMrxzF4cXtlLxFg9~mxaUHAlTVg__&Key-Pair-Id=APKAJ6KCI2B6BKBQMD4A
p92
sS'recent'
p93
Vhttps://live-su.cdn.pooq.co.kr/hls/C5901/1/5000/live.m3u8?Policy=eyJTdGF0ZW1lbnQiOlt7IlJlc291cmNlIjoiaHR0cCo6Ly8qLmNkbi5wb29xLmNvLmtyL2hscy9DNTkwMS8xLzUwMDAvKiIsIkNvbmRpdGlvbiI6eyJEYXRlTGVzc1RoYW4iOnsiQVdTOkVwb2NoVGltZSI6MTU2MTUzMTQyM30sIklwQWRkcmVzcyI6eyJBV1M6U291cmNlSXAiOiIxLjIyMS42MS4wLzI0In19fV0sInRpZCI6IjA4MjMifQ__&Signature=Z7a9NyP75xtgUc4vov2q5okx389hJcf7uPJHKIKe7t7loVvof~zOuICXgXsvqFSweg0tiiYfyaFsbJ0rsMMz-295kqh66qSKAXNtzGhuHMIxnPQQyeS--dfuGW-7vzcyCbUjW9wiCFudW2V2hhxKwjYoFZfsPME2h2cY8IhVbt81yem1Q4EXCBP-wk4S-BGHAj~TFTdji36JlzMJolL718AHb1JcsF88zN4205hJf6-TC9BhZX3w5sF4w7leGkd2xrNa3nTWQQV4qvO41HK3VyNQKDIPf2tKQ3u3psXJvuGz0~d8RlfGMlHDnTpFdtcPV~Di79gsVrYrYN3gVe4r7A__&Key-Pair-Id=APKAJ6KCI2B6BKBQMD4A
p94
sVC4701
p95
Vhttps://live-su.cdn.pooq.co.kr/hls/C4701/1/2000/live.m3u8?Policy=eyJTdGF0ZW1lbnQiOlt7IlJlc291cmNlIjoiaHR0cCo6Ly8qLmNkbi5wb29xLmNvLmtyL2hscy9DNDcwMS8xLzIwMDAvKiIsIkNvbmRpdGlvbiI6eyJEYXRlTGVzc1RoYW4iOnsiQVdTOkVwb2NoVGltZSI6MTUzODkzNzI0M30sIklwQWRkcmVzcyI6eyJBV1M6U291cmNlSXAiOiIxMjUuMTgzLjIwNC4wLzI0In19fV0sInRpZCI6IjczNTA3NDIwODQzIn0_&Signature=IJuCuaKJI8rj5EC~Y2wsA1PPx6E0g8ZrM68S8GydUmu3ijtIdJ76taTmVyutQ6CZSj0B8G6MNjPpy6DvuDb4MP4ADZRVP2DL8lyRsdmtes4f2LOZGMwuIXVKDuOhaT0kYeriFeN0HBuyhZ6BYYZKKvpVFMImtlMUaWPlZ~~rKeQtB5kTFWKxFeqx~nPjqSYpX4Aj3o9Kr6U-LfT7CEVKYqzlg6F~cOJdCmGcR5bdKMTXuTUleWN4RgcwfF5hLiD-FNrKgLE3wUNi6QL-P3jNQlhqdxR97V~EyDyfL5XUz0ivyKx8A4tKnYljRP2WOh81hVJkg15vujvX9NS~zL~kzw__&Key-Pair-Id=APKAJ6KCI2B6BKBQMD4A
p96
sVC4702
p97
Vhttps://live-su.cdn.pooq.co.kr/hls/C4702/1/2000/live.m3u8?Policy=eyJTdGF0ZW1lbnQiOlt7IlJlc291cmNlIjoiaHR0cCo6Ly8qLmNkbi5wb29xLmNvLmtyL2hscy9DNDcwMi8xLzIwMDAvKiIsIkNvbmRpdGlvbiI6eyJEYXRlTGVzc1RoYW4iOnsiQVdTOkVwb2NoVGltZSI6MTU1NDI0MTE2MX0sIklwQWRkcmVzcyI6eyJBV1M6U291cmNlSXAiOiIxLjIyMS42MS4wLzI0In19fV0sInRpZCI6IjEwMDk0NTE1NDc2MSJ9&Signature=lckvTErdcJmuF8EyckLj4hmOknJzCKjURrj0nsG1PhCgjd9t84vIryKv7vGISwa4NiE3xVA-jhWDwslLY~VtxBKLbPA0KgZtKVvHrCdi~SZDES89wGPHQDGDA6tQHNZEqqsqnoTN~m5co~PjfFa6QvSuaPEnwPmLK8-zbr-reM5bdImGC5m~FS4X79EkUst24kiZAjh7oZCg224dKT42uc2SLcxNxdiYrUF0kFlfdlZPBpdivQJEEXZiTOVygp0k6GBAiO1kv7oHBUiNg-3VZ91I3-iYsT9gHy2LuvLmxUW5N60uutE8HddjNSd~yRVkSyaOwoT5S-q4QMaL177tPg__&Key-Pair-Id=APKAJ6KCI2B6BKBQMD4A
p98
sVS01
p99
Vhttps://live-su.cdn.pooq.co.kr/hls/S01/1/5000/live.m3u8?Policy=eyJTdGF0ZW1lbnQiOlt7IlJlc291cmNlIjoiaHR0cCo6Ly8qLmNkbi5wb29xLmNvLmtyL2hscy9TMDEvMS81MDAwLyoiLCJDb25kaXRpb24iOnsiRGF0ZUxlc3NUaGFuIjp7IkFXUzpFcG9jaFRpbWUiOjE1NTg1MTEwODB9LCJJcEFkZHJlc3MiOnsiQVdTOlNvdXJjZUlwIjoiMS4yMjEuNjEuMC8yNCJ9fX1dLCJ0aWQiOiIwNDgwIn0_&Signature=ExEE1z1ZsCtMKYzA8RmZf6XmlYfVS99AdKrNlZLmWhvBNR83B6xPHEaYDvWShcVWzO0y18tIME61Qt~UWXZi~L7y-n93ZVAxwmqh1jZsUsHUbtrGzBNAcEFqe3XqTIELMKsvT45LOf6VjuqEVkywQ6MQFfNC4gkAaz7CDbCqXDGBdS7ophmS2Lk1vCWS5c1heRnvfNIrGLchZXPC9vavp33uPXMJd2QcaZrgohgeE3YoNzGhRq8YlShEEHyOYYQVHdETEK6~wRXWPmSt8NmTpq27S7U2w-zq~mvTF6Dxgo-mGzuaXwOkEqqb~3uPRCBPSa0Bh63YUu2P4zQDImvquQ__&Key-Pair-Id=APKAJ6KCI2B6BKBQMD4A
p100
sVA01
p101
Vhttps://live-su.cdn.pooq.co.kr/hls/A01/1/2000/live.m3u8?Policy=eyJTdGF0ZW1lbnQiOlt7IlJlc291cmNlIjoiaHR0cCo6Ly8qLmNkbi5wb29xLmNvLmtyL2hscy9BMDEvMS8yMDAwLyoiLCJDb25kaXRpb24iOnsiRGF0ZUxlc3NUaGFuIjp7IkFXUzpFcG9jaFRpbWUiOjE1MzkxOTM0MTB9LCJJcEFkZHJlc3MiOnsiQVdTOlNvdXJjZUlwIjoiMTI1LjE4My4yMDQuMC8yNCJ9fX1dLCJ0aWQiOiI3MzUwNzQyNzAxMCJ9&Signature=boEp20VpatkbMmIihGOllSmx4E4sV7TeENdrxWLPK5cyZcNKnqyUcK64Xf~44Mc~MppOc4kFUbiZnreqjrwD4TuGBdIrZy1O6HIGP0yoUqXxUshb9uqijQonMibq1kIsaKwMeeFXOtylSRqosmCDwWHEdnGrLo~lOwP7h3AUvScpKqx9B2Ns2OTTj-HsFtKjwlH9eIwlyEqhNqZwSy8JEAonFqXYGE1i1uWHhVj3N3489z9aW7wPPpCTfZFrUqGkw0HgxW4Bq4Flp8mYrOQfxv~g6AxFh9J2ZbgeTSC7FgJdVULeACEdqS4-LDoqpAo2en-Rxoz03WZtCfgwwsG3og__&Key-Pair-Id=APKAJ6KCI2B6BKBQMD4A
p102
sVC3901
p103
Vhttps://live-su.cdn.pooq.co.kr/hls/C3901/1/500/live.m3u8?Policy=eyJTdGF0ZW1lbnQiOlt7IlJlc291cmNlIjoiaHR0cCo6Ly8qLmNkbi5wb29xLmNvLmtyL2hscy9DMzkwMS8xLzUwMC8qIiwiQ29uZGl0aW9uIjp7IkRhdGVMZXNzVGhhbiI6eyJBV1M6RXBvY2hUaW1lIjoxNTM5NjU5MjYxfSwiSXBBZGRyZXNzIjp7IkFXUzpTb3VyY2VJcCI6IjEyNS4xODMuMjA0LjAvMjQifX19XSwidGlkIjoiNzM1MDc0MjI4NjEifQ__&Signature=VS45C-vsUNiQ457FFvhtkNdz7t8AB4Wu2Fx4osyDMoeAAcLn~BGwbcr7r4Hf4rTt9ZCYUaWl2xJ3-xXyVm8YKmxyPknIiQBruRYBsSEi9edbL4mfZmDEFCCQW1Q0CEx3N43ieOO8K5Gk0WaHeJTVESHyzC2LnrsmNR6-BsyYQF9iVOi28o7A~ozmnIDbpDqmg63e6VfeLVQq5g4ig9aIGPON7o1mvJLzJz-cFXJ6agqVdDs08HZ5nV-i3DLfplmMp3UOoG8YP1~q6sAdtbDDcXElnxyCYtn7ZzYSfSn3E72f~APKQjU1uvLkN8yOSuJ73qG-g20gf5duA4vRrOY3Fg__&Key-Pair-Id=APKAJ6KCI2B6BKBQMD4A
p104
sVS04
p105
Vhttps://live-su.cdn.pooq.co.kr/hls/S04/1/5000/live.m3u8?Policy=eyJTdGF0ZW1lbnQiOlt7IlJlc291cmNlIjoiaHR0cCo6Ly8qLmNkbi5wb29xLmNvLmtyL2hscy9TMDQvMS81MDAwLyoiLCJDb25kaXRpb24iOnsiRGF0ZUxlc3NUaGFuIjp7IkFXUzpFcG9jaFRpbWUiOjE1Mzk1ODE2MDl9LCJJcEFkZHJlc3MiOnsiQVdTOlNvdXJjZUlwIjoiMTI1LjE4My4yMDQuMC8yNCJ9fX1dLCJ0aWQiOiI3MzUwNzQyNTIwOSJ9&Signature=MnKd5s3urOzsD-mgH98BXogKQ74p-d1jW0X1NP~GTs9ZfLlCbdQgqoU~BXvT3oXAA3aKlQM1feddLQyqPkw4fUeY6YwhlaDhQYa5rAHC7GPTHaOmeWlUtnvQwuAS2dVWiqH8pINUfJ4l-xX7Qz9zNVTDeeIY2XGBsHQ33LwPqPNigJYt3ShgdN7OtN1d5RBR632UC~nsngQ1cCGY61onaoowjOJmTZVzF6lVBewGIJ8~MY-vXDmMtt-cxzBvmwQ~ipgo3-9F8RSKUENKuT4G0LDcwJmGvoTNYdpx0jv8h~SDWS5ONaPrq8bCugkKeBMVyT3e4Hkj0SBlE0sOfjahxQ__&Key-Pair-Id=APKAJ6KCI2B6BKBQMD4A
p106
sVS06
p107
Vhttps://live-su.cdn.pooq.co.kr/hls/S06/1/5000/live.m3u8?Policy=eyJTdGF0ZW1lbnQiOlt7IlJlc291cmNlIjoiaHR0cCo6Ly8qLmNkbi5wb29xLmNvLmtyL2hscy9TMDYvMS81MDAwLyoiLCJDb25kaXRpb24iOnsiRGF0ZUxlc3NUaGFuIjp7IkFXUzpFcG9jaFRpbWUiOjE1NTI3NDU0MzF9LCJJcEFkZHJlc3MiOnsiQVdTOlNvdXJjZUlwIjoiMS4yMjEuNjEuMC8yNCJ9fX1dLCJ0aWQiOiIxMDA5NDUxNTkwMzEifQ__&Signature=ctDBB9y4O35Mfm3z4XkTrySJY1PXfXgtx8MR2Eb5j~5hfNzm8qvUUCR-yFRTkuMaB6~d6oFrGPWEHJLfxeDxw4v4eVndT44pigs7R0ljI1s-uWn~qk5dtYeAS2LxAtNHbehyVgUzR0ScVm3co3BxbMitaNoThmAu~2eDFPK8gC6Xc57iIvH9WaaOlNETLasKJ0ILA6o0c4iOd~rU0ZwYPmZISd5elqLs5~lthwqKbC7w7tBY4pTcRBYjWVCfgkofAcsoCslg7Z86Un97TFY0y0HIKeC1NXjujPiedVE0Z4XYaatXW2a0z6d8zLl7g7Xzrg-Pm0oYO0fnfWadBo8jRQ__&Key-Pair-Id=APKAJ6KCI2B6BKBQMD4A
p108
sVS07
p109
Vhttps://live-su.cdn.pooq.co.kr/hls/S07/1/100/radio.m3u8?Policy=eyJTdGF0ZW1lbnQiOlt7IlJlc291cmNlIjoiaHR0cCo6Ly8qLmNkbi5wb29xLmNvLmtyL2hscy9TMDcvMS8xMDAvKiIsIkNvbmRpdGlvbiI6eyJEYXRlTGVzc1RoYW4iOnsiQVdTOkVwb2NoVGltZSI6MTUzOTI2OTA2MH0sIklwQWRkcmVzcyI6eyJBV1M6U291cmNlSXAiOiIwLjAuMC4wLzAifX19XSwidGlkIjoiNzM1MDc0MjI2NjAifQ__&Signature=YY1j9DcLiOa-NkjzTzkMp1fPti3v3Mmm7-hx2agrKwdiA8elkWWJ3WTy7p9gN5iHssIaYfLRmXzbYqpmxkiYKOoLhH2kYPo3eb4ol5g6WKT9EAXGv4br04nXfR45SvJyJAtRiRyRcM8DrCek62N8FzirVdUo-W-4Tj7mqYCiJ3CMLbYuG7QBXct07LaJKc-XTBi1esR7BPV5pkpaGK3dT56MoYo8ZR3aDUhDCpIEPUirm4ibWHmySYd1flGyqOQLBjq4kiDV0Vn0xUta1xbfSpwKvOZ8dJWeSiZSN6w2pf9aNM6m6phtjrm7AzB0v-peu4AdFU-oGp85RbY2MtIPvw__&Key-Pair-Id=APKAJ6KCI2B6BKBQMD4A
p110
sVC5901
p111
g94
sVC5902
p112
Vhttps://live-su.cdn.pooq.co.kr/hls/C5902/1/5000/live.m3u8?Policy=eyJTdGF0ZW1lbnQiOlt7IlJlc291cmNlIjoiaHR0cCo6Ly8qLmNkbi5wb29xLmNvLmtyL2hscy9DNTkwMi8xLzUwMDAvKiIsIkNvbmRpdGlvbiI6eyJEYXRlTGVzc1RoYW4iOnsiQVdTOkVwb2NoVGltZSI6MTU2MDgyNTQ0MX0sIklwQWRkcmVzcyI6eyJBV1M6U291cmNlSXAiOiIxLjIyMS42MS4wLzI0In19fV0sInRpZCI6IjQ4NDEifQ__&Signature=ObsJscSGSkqF-TM7nRAHG3j1SwXJXjThDDwW41EoC2VOdHnxgxYMRhHOWCsD9bd5OZcAm0fDF3t48VqXd-V5HIe010B8klF9vWdS1eFM~u8Bf-Gj6aOxNHRug8UcmQHk2JFrGevvXxvT4lMJzRpZOZRXwE2~SI4d5ix3m0KuUYTVkrhRdIIXkhUZaL7iLyCsSmrYJXnpH8~WA~BXxLSbw5ktO9fBYwwO3Qu6lg0nYA67uGlwcFt2lxT3JZ89ku~KaqkgRFaVDvNyOvwp4FSoDn-yrLnhCa2iw-7YMZShWIyFS62PiYE3OetwF6WwuBS7eIw3pih9~4kBAJvg8K~4VA__&Key-Pair-Id=APKAJ6KCI2B6BKBQMD4A
p113
sVM12
p114
Vhttps://live-su.cdn.pooq.co.kr/hls/M12/1/2000/live.m3u8?Policy=eyJTdGF0ZW1lbnQiOlt7IlJlc291cmNlIjoiaHR0cCo6Ly8qLmNkbi5wb29xLmNvLmtyL2hscy9NMTIvMS8yMDAwLyoiLCJDb25kaXRpb24iOnsiRGF0ZUxlc3NUaGFuIjp7IkFXUzpFcG9jaFRpbWUiOjE1NTczODA2NDh9LCJJcEFkZHJlc3MiOnsiQVdTOlNvdXJjZUlwIjoiMS4yMjEuNjEuMC8yNCJ9fX1dLCJ0aWQiOiIwMDQ4In0_&Signature=h5TJGsfXXiQkfP7QQlANmWSYXVBEyQcj0MW9r-Rltbm~pN8n4yYROnHr-8Aetn~Q3ZdlKs-Oe6pnkr2dvp3PCEhO94S5csSnH0COhZ40C7VP-t3Nh54KlLbt9hAX6-UIvjrfTogViXzxg6OehcGL4yjEZpg8eurYmpiHBG5pRgJ3OAQwJvO8M96UdfztLXK56FRsjsQ4Oa4R2AnDK9OOfmg4grEVcPPFBPRMOaiPNR~gtXgS8qBdghQP0S3ipX1OB3HlbxRuRvHTJy79Loj76rrzTuVbJd7QADxMCUxWsET4rWjKaf-9J19g4ujxWGkXWWXdCnlhs5eyFWakqsm~GQ__&Key-Pair-Id=APKAJ6KCI2B6BKBQMD4A
p115
sVC2401
p116
Vhttps://live-su.cdn.pooq.co.kr/hls/C2401/1/2000/live.m3u8?Policy=eyJTdGF0ZW1lbnQiOlt7IlJlc291cmNlIjoiaHR0cCo6Ly8qLmNkbi5wb29xLmNvLmtyL2hscy9DMjQwMS8xLzIwMDAvKiIsIkNvbmRpdGlvbiI6eyJEYXRlTGVzc1RoYW4iOnsiQVdTOkVwb2NoVGltZSI6MTUzOTI2OTA0MH0sIklwQWRkcmVzcyI6eyJBV1M6U291cmNlSXAiOiIxMjUuMTgzLjIwNC4wLzI0In19fV0sInRpZCI6IjczNTA3NDIyNjQwIn0_&Signature=O0ZBAMcfdHCQrQ4ghqyrGtiNV~e2Idi7rUir3Xy21dgvuwl~mJ8JeOvWVG5BJwQ50bKwKojRPSweYq5zXDOmTDSx0RVoPx8gaTXWh0vWqcDpdwkcXcfc7cYTTj3jj~6RPhnYYy2FXZBOQod6mRj7z00aYjw~A8L6-kuvHFEmlWOlvBHaCzADhspY5OfUztQgVanQHRkX8PknMLwIQA4kRXQLn9tG40icHUn1bhqfTa8blZXLG7cMZH84gec3TBEPl360i6Gjq7Yhjsw344YMoIxPTOPcnlJRT1iBYfteJAzFUXMgLEmFlljWV2gH7pWusNO7PB3Fj5OjCOsL1JiC~g__&Key-Pair-Id=APKAJ6KCI2B6BKBQMD4A
p117
sVK08
p118
Vhttps://live-su.cdn.pooq.co.kr/hls/K08/1/100/radio.m3u8?Policy=eyJTdGF0ZW1lbnQiOlt7IlJlc291cmNlIjoiaHR0cCo6Ly8qLmNkbi5wb29xLmNvLmtyL2hscy9LMDgvMS8xMDAvKiIsIkNvbmRpdGlvbiI6eyJEYXRlTGVzc1RoYW4iOnsiQVdTOkVwb2NoVGltZSI6MTUzOTE5MTcxM30sIklwQWRkcmVzcyI6eyJBV1M6U291cmNlSXAiOiIwLjAuMC4wLzAifX19XSwidGlkIjoiNzM1MDc0MjUzMTMifQ__&Signature=chUEBRGLhj-jGQkeNuH072gWAJtxC8UIcxlpBIemITse23E2Z0Rjtkrez3e~P8lfIflGed5gQaRFM4CzAq9qV39oP~f2fycqfwTX1WcdXcFGSphB~T4ghfZITuMnaLDXDLAXjekQ8OJDVKGej5q8VxVKfUB14ihd8Rb3VzqX9Lzhmgrx7uUpCflCvSThr0Fm7GWSgmSFSCvSRjo1S2K89omYwd~eYom3a5dh-eNASSV7FktfJwWHQtpoCXHcnvXDA~q3fMeKIILi3j15Zr8k29tI1DY7eg~Fy-dZ2AcRtvlsbE56g63cHrZvVui-MOu~ToBk8S0BiUhbjM0W5~QIwQ__&Key-Pair-Id=APKAJ6KCI2B6BKBQMD4A
p119
sVE07
p120
Vhttps://live-su.cdn.pooq.co.kr/hls/E07/1/2000/live.m3u8?Policy=eyJTdGF0ZW1lbnQiOlt7IlJlc291cmNlIjoiaHR0cCo6Ly8qLmNkbi5wb29xLmNvLmtyL2hscy9FMDcvMS8yMDAwLyoiLCJDb25kaXRpb24iOnsiRGF0ZUxlc3NUaGFuIjp7IkFXUzpFcG9jaFRpbWUiOjE1NTUyNDQyMTV9LCJJcEFkZHJlc3MiOnsiQVdTOlNvdXJjZUlwIjoiMS4yMjEuNjEuMC8yNCJ9fX1dLCJ0aWQiOiIzNjE1In0_&Signature=ZcfnMkKgnJgTiod0WFimhmXzoI6VZ9mGYoxWd2nhYIqyaxI3NgzTCQBSaidlA4U68R~z~MFt3g4WWwbvrNHsk8Vz-vWDBvJuixEruHYsYDBD1I0vY8DBF5DbSAbAhZ27J2ruWuSI5hb2frQ~R2aB5ezDXalrEQSa7B2bi5-oEjhtxdJJ0GPUVvJpm9hce4L6u8V3UxqShKXitl4Uql0TTjaZ5TYqxVLlugfeywmg700GQ5i4i5INwXNJNKgCoSNKeastjsJCKlPpxK0VEjef2pWX9Nm6FfUPO-41m-hgZAn9KePPmz01Jz-wWZk1-u6kECHBg8eozU69sUa4SiH7Qw__&Key-Pair-Id=APKAJ6KCI2B6BKBQMD4A
p121
sVS02
p122
Vhttps://live-su.cdn.pooq.co.kr/hls/S02/1/5000/live.m3u8?Policy=eyJTdGF0ZW1lbnQiOlt7IlJlc291cmNlIjoiaHR0cCo6Ly8qLmNkbi5wb29xLmNvLmtyL2hscy9TMDIvMS81MDAwLyoiLCJDb25kaXRpb24iOnsiRGF0ZUxlc3NUaGFuIjp7IkFXUzpFcG9jaFRpbWUiOjE1NTU0MTU2MzJ9LCJJcEFkZHJlc3MiOnsiQVdTOlNvdXJjZUlwIjoiMS4yMjEuNjEuMC8yNCJ9fX1dLCJ0aWQiOiI1MDMyIn0_&Signature=PwJ8F1C63syN2YzztRNiWzdwElLaip5GFEj~ib-t7LITPnaZEOwJAqcMrzmx7E-nKAPuVvmRwLj9qxuwEmq5kYRpT23vWJusaabvh66WA6FoGxTAUrICXc7Gv-XU9Wo9TUNHSvJcb4vxu2XL2kl3AAARbIuQ8OKrvpmA24oI3bqtBDL7Xk~Xx55v2O8jXyhs~Py5gOpFGFDY-FjsD1rtYziMCTgJvDTnHdKqfAXyZRCC9cPu32LQiKQoOXGD3EvROkJsxUnkaFZ34DmmxBQrWuf2mtlLOOOPJA~7fNy-FCuLZAqO7kBcqcLqOw-RX-33xk5vuVDU2TfsNSlueQtwvA__&Key-Pair-Id=APKAJ6KCI2B6BKBQMD4A
p123
s.